; Function Attrs: mustprogress uwtable
define hidden void @_ZN6google8protobuf9StrAppendEPNSt7__cxx1112basic_stringIcSt11char_traitsIcESaIcEEERKNS0_7strings8AlphaNumE(ptr noundef %0, ptr noundef nonnull readonly align 8 captures(none) dereferenceable(48) %1) local_unnamed_addr #6 personality ptr @__gxx_personality_v0 {
  %3 = getelementptr inbounds nuw i8, ptr %1, i64 8
  %4 = load i64, ptr %3, align 8, !tbaa !97
  %5 = getelementptr inbounds nuw i8, ptr %0, i64 8
  %6 = load i64, ptr %5, align 8, !tbaa !14
  %7 = sub i64 4611686018427387903, %6
  %8 = icmp ult i64 %7, %4
  br i1 %8, label %9, label %_ZNSt7__cxx1112basic_stringIcSt11char_traitsIcESaIcEE6appendEPKcm.exit

9:                                                ; preds = %2
  tail call void @_ZSt20__throw_length_errorPKc(ptr noundef nonnull @.str.46) #30
  unreachable

_ZNSt7__cxx1112basic_stringIcSt11char_traitsIcESaIcEE6appendEPKcm.exit: ; preds = %2
  %10 = load ptr, ptr %1, align 8, !tbaa !95
  %11 = tail call noundef nonnull align 8 dereferenceable(32) ptr @_ZNSt7__cxx1112basic_stringIcSt11char_traitsIcESaIcEE9_M_appendEPKcm(ptr noundef nonnull align 8 dereferenceable(32) %0, ptr noundef %10, i64 noundef %4)
  ret void
}